target datalayout = "e-m:e-p270:32:32-p271:32:32-p272:64:64-i64:64-i128:128-f80:128-n8:16:32:64-S128"
target triple = "x86_64-unknown-linux-gnu"

%"class.google::protobuf::DynamicMessageFactory" = type { %"class.google::protobuf::MessageFactory", ptr, i8, %"class.absl::lts_20230802::flat_hash_map", %"class.absl::lts_20230802::Mutex" }
%"class.google::protobuf::MessageFactory" = type { ptr }
%"class.absl::lts_20230802::flat_hash_map" = type { %"class.absl::lts_20230802::container_internal::raw_hash_map" }
%"class.absl::lts_20230802::container_internal::raw_hash_map" = type { %"class.absl::lts_20230802::container_internal::raw_hash_set" }
%"class.absl::lts_20230802::container_internal::raw_hash_set" = type { %"class.absl::lts_20230802::container_internal::CompressedTuple" }
%"class.absl::lts_20230802::container_internal::CompressedTuple" = type { %"struct.absl::lts_20230802::container_internal::internal_compressed_tuple::CompressedTupleImpl" }
%"struct.absl::lts_20230802::container_internal::internal_compressed_tuple::CompressedTupleImpl" = type { %"struct.absl::lts_20230802::container_internal::internal_compressed_tuple::Storage" }
%"struct.absl::lts_20230802::container_internal::internal_compressed_tuple::Storage" = type { %"class.absl::lts_20230802::container_internal::CommonFields" }
%"class.absl::lts_20230802::container_internal::CommonFields" = type { ptr, ptr, i64, %"class.absl::lts_20230802::container_internal::CompressedTuple.30" }
%"class.absl::lts_20230802::container_internal::CompressedTuple.30" = type { %"struct.absl::lts_20230802::container_internal::internal_compressed_tuple::CompressedTupleImpl.31" }
%"struct.absl::lts_20230802::container_internal::internal_compressed_tuple::CompressedTupleImpl.31" = type { %"struct.absl::lts_20230802::container_internal::internal_compressed_tuple::Storage.32" }
%"struct.absl::lts_20230802::container_internal::internal_compressed_tuple::Storage.32" = type { i64 }
%"class.absl::lts_20230802::Mutex" = type { %"struct.std::atomic.37" }
%"struct.std::atomic.37" = type { %"struct.std::__atomic_base.38" }
%"struct.std::__atomic_base.38" = type { i64 }
%"class.absl::lts_20230802::MutexLock" = type { ptr }

; Function Attrs: mustprogress nounwind uwtable
define linkonce_odr hidden void @_ZN4absl12lts_202308029MutexLockD2Ev(ptr noundef nonnull align 8 dereferenceable(8) %this) unnamed_addr #5 comdat align 2 personality ptr @__gxx_personality_v0 {
entry:
  %this.addr = alloca ptr, align 8
  store ptr %this, ptr %this.addr, align 8
  %this1 = load ptr, ptr %this.addr, align 8
  %mu_ = getelementptr inbounds %"class.absl::lts_20230802::MutexLock", ptr %this1, i32 0, i32 0
  %0 = load ptr, ptr %mu_, align 8
  invoke void @_ZN4absl12lts_202308025Mutex6UnlockEv(ptr noundef nonnull align 8 dereferenceable(8) %0)
          to label %invoke.cont unwind label %terminate.lpad

invoke.cont:                                      ; preds = %entry
  ret void

terminate.lpad:                                   ; preds = %entry
  %1 = landingpad { ptr, i32 }
          catch ptr null
  %2 = extractvalue { ptr, i32 } %1, 0
  call void @__clang_call_terminate(ptr %2) #23
  unreachable
}

; Function Attrs: mustprogress uwtable
define linkonce_odr hidden void @_ZN4absl12lts_202308029MutexLockC2EPNS0_5MutexE(ptr noundef nonnull align 8 dereferenceable(8) %this, ptr noundef %mu) unnamed_addr #4 comdat align 2 {
entry:
  %this.addr = alloca ptr, align 8
  %mu.addr = alloca ptr, align 8
  store ptr %this, ptr %this.addr, align 8
  store ptr %mu, ptr %mu.addr, align 8
  %this1 = load ptr, ptr %this.addr, align 8
  %mu_ = getelementptr inbounds %"class.absl::lts_20230802::MutexLock", ptr %this1, i32 0, i32 0
  %0 = load ptr, ptr %mu.addr, align 8
  store ptr %0, ptr %mu_, align 8
  %mu_2 = getelementptr inbounds %"class.absl::lts_20230802::MutexLock", ptr %this1, i32 0, i32 0
  %1 = load ptr, ptr %mu_2, align 8
  call void @_ZN4absl12lts_202308025Mutex4LockEv(ptr noundef nonnull align 8 dereferenceable(8) %1)
  ret void
}

; Function Attrs: mustprogress uwtable
define noundef ptr @_ZN6google8protobuf21DynamicMessageFactory12GetPrototypeEPKNS0_10DescriptorE(ptr noundef nonnull align 8 dereferenceable(64) %this, ptr noundef %type) unnamed_addr #4 align 2 personality ptr @__gxx_personality_v0 {
entry:
  %this.addr = alloca ptr, align 8
  %type.addr = alloca ptr, align 8
  %lock = alloca %"class.absl::lts_20230802::MutexLock", align 8
  %exn.slot = alloca ptr, align 8
  %ehselector.slot = alloca i32, align 4
  store ptr %this, ptr %this.addr, align 8
  store ptr %type, ptr %type.addr, align 8
  %this1 = load ptr, ptr %this.addr, align 8
  %prototypes_mutex_ = getelementptr inbounds %"class.google::protobuf::DynamicMessageFactory", ptr %this1, i32 0, i32 4
  call void @_ZN4absl12lts_202308029MutexLockC2EPNS0_5MutexE(ptr noundef nonnull align 8 dereferenceable(8) %lock, ptr noundef %prototypes_mutex_)
  %0 = load ptr, ptr %type.addr, align 8
  %call = invoke noundef ptr @_ZN6google8protobuf21DynamicMessageFactory18GetPrototypeNoLockEPKNS0_10DescriptorE(ptr noundef nonnull align 8 dereferenceable(64) %this1, ptr noundef %0)
          to label %invoke.cont unwind label %lpad

invoke.cont:                                      ; preds = %entry
  call void @_ZN4absl12lts_202308029MutexLockD2Ev(ptr noundef nonnull align 8 dereferenceable(8) %lock) #3
  ret ptr %call

lpad:                                             ; preds = %entry
  %1 = landingpad { ptr, i32 }
          cleanup
  %2 = extractvalue { ptr, i32 } %1, 0
  store ptr %2, ptr %exn.slot, align 8
  %3 = extractvalue { ptr, i32 } %1, 1
  store i32 %3, ptr %ehselector.slot, align 4
  call void @_ZN4absl12lts_202308029MutexLockD2Ev(ptr noundef nonnull align 8 dereferenceable(8) %lock) #3
  br label %eh.resume

eh.resume:                                        ; preds = %lpad
  %exn = load ptr, ptr %exn.slot, align 8
  %sel = load i32, ptr %ehselector.slot, align 4
  %lpad.val = insertvalue { ptr, i32 } poison, ptr %exn, 0
  %lpad.val2 = insertvalue { ptr, i32 } %lpad.val, i32 %sel, 1
  resume { ptr, i32 } %lpad.val2
}