; Function Attrs: mustprogress uwtable
define noundef ptr @_ZN6google8protobuf21DynamicMessageFactory12GetPrototypeEPKNS0_10DescriptorE(ptr noundef nonnull align 8 dereferenceable(64) %this, ptr noundef %type) unnamed_addr #3 align 2 personality ptr @__gxx_personality_v0 {
entry:
  %prototypes_mutex_ = getelementptr inbounds i8, ptr %this, i64 56
  tail call void @_ZN4absl12lts_202308025Mutex4LockEv(ptr noundef nonnull align 8 dereferenceable(8) %prototypes_mutex_)
  %call = invoke noundef ptr @_ZN6google8protobuf21DynamicMessageFactory18GetPrototypeNoLockEPKNS0_10DescriptorE(ptr noundef nonnull align 8 dereferenceable(64) %this, ptr noundef %type)
          to label %invoke.cont unwind label %lpad

invoke.cont:                                      ; preds = %entry
  invoke void @_ZN4absl12lts_202308025Mutex6UnlockEv(ptr noundef nonnull align 8 dereferenceable(8) %prototypes_mutex_)
          to label %_ZN4absl12lts_202308029MutexLockD2Ev.exit unwind label %terminate.lpad.i

terminate.lpad.i:                                 ; preds = %invoke.cont
  %0 = landingpad { ptr, i32 }
          catch ptr null
  %1 = extractvalue { ptr, i32 } %0, 0
  tail call void @__clang_call_terminate(ptr %1) #25
  unreachable

_ZN4absl12lts_202308029MutexLockD2Ev.exit:        ; preds = %invoke.cont
  ret ptr %call

lpad:                                             ; preds = %entry
  %2 = landingpad { ptr, i32 }
          cleanup
  invoke void @_ZN4absl12lts_202308025Mutex6UnlockEv(ptr noundef nonnull align 8 dereferenceable(8) %prototypes_mutex_)
          to label %_ZN4absl12lts_202308029MutexLockD2Ev.exit2 unwind label %terminate.lpad.i1

terminate.lpad.i1:                                ; preds = %lpad
  %3 = landingpad { ptr, i32 }
          catch ptr null
  %4 = extractvalue { ptr, i32 } %3, 0
  tail call void @__clang_call_terminate(ptr %4) #25
  unreachable

_ZN4absl12lts_202308029MutexLockD2Ev.exit2:       ; preds = %lpad
  resume { ptr, i32 } %2
}